target datalayout = "e-m:e-p270:32:32-p271:32:32-p272:64:64-i64:64-i128:128-f80:128-n8:16:32:64-S128"
target triple = "x86_64-pc-linux-gnu"

%struct.b2Vec2 = type { float, float }
%struct.b2RayCastInput = type { %struct.b2Vec2, %struct.b2Vec2, float }
%struct.b2Circle = type { %struct.b2Vec2, float }
%struct.b2CastOutput = type { %struct.b2Vec2, %struct.b2Vec2, float, i32, i8 }

@b2Vec2_zero = internal constant %struct.b2Vec2 zeroinitializer, align 4

; Function Attrs: inlinehint nounwind uwtable
define internal float @b2Length(<2 x float> %0) #6 {
  %2 = alloca %struct.b2Vec2, align 4
  store <2 x float> %0, ptr %2, align 4
  %3 = getelementptr inbounds nuw %struct.b2Vec2, ptr %2, i32 0, i32 0
  %4 = load float, ptr %3, align 4, !tbaa !30
  %5 = getelementptr inbounds nuw %struct.b2Vec2, ptr %2, i32 0, i32 0
  %6 = load float, ptr %5, align 4, !tbaa !30
  %7 = fmul float %4, %6
  %8 = getelementptr inbounds nuw %struct.b2Vec2, ptr %2, i32 0, i32 1
  %9 = load float, ptr %8, align 4, !tbaa !31
  %10 = getelementptr inbounds nuw %struct.b2Vec2, ptr %2, i32 0, i32 1
  %11 = load float, ptr %10, align 4, !tbaa !31
  %12 = fmul float %9, %11
  %13 = fadd float %7, %12
  %14 = call float @sqrtf(float noundef %13) #9, !tbaa !25
  ret float %14
}

; Function Attrs: inlinehint nounwind uwtable
define internal <2 x float> @b2Normalize(<2 x float> %0) #6 {
  %2 = alloca %struct.b2Vec2, align 4
  %3 = alloca %struct.b2Vec2, align 4
  %4 = alloca float, align 4
  %5 = alloca i32, align 4
  %6 = alloca float, align 4
  store <2 x float> %0, ptr %3, align 4
  call void @llvm.lifetime.start.p0(i64 4, ptr %4) #9
  %7 = getelementptr inbounds nuw %struct.b2Vec2, ptr %3, i32 0, i32 0
  %8 = load float, ptr %7, align 4, !tbaa !30
  %9 = getelementptr inbounds nuw %struct.b2Vec2, ptr %3, i32 0, i32 0
  %10 = load float, ptr %9, align 4, !tbaa !30
  %11 = fmul float %8, %10
  %12 = getelementptr inbounds nuw %struct.b2Vec2, ptr %3, i32 0, i32 1
  %13 = load float, ptr %12, align 4, !tbaa !31
  %14 = getelementptr inbounds nuw %struct.b2Vec2, ptr %3, i32 0, i32 1
  %15 = load float, ptr %14, align 4, !tbaa !31
  %16 = fmul float %13, %15
  %17 = fadd float %11, %16
  %18 = call float @sqrtf(float noundef %17) #9, !tbaa !25
  store float %18, ptr %4, align 4, !tbaa !12
  %19 = load float, ptr %4, align 4, !tbaa !12
  %20 = fcmp olt float %19, 0x3E80000000000000
  br i1 %20, label %21, label %22

21:                                               ; preds = %1
  call void @llvm.memcpy.p0.p0.i64(ptr align 4 %2, ptr align 4 @b2Vec2_zero, i64 8, i1 false), !tbaa.struct !26
  store i32 1, ptr %5, align 4
  br label %35

22:                                               ; preds = %1
  call void @llvm.lifetime.start.p0(i64 4, ptr %6) #9
  %23 = load float, ptr %4, align 4, !tbaa !12
  %24 = fdiv float 1.000000e+00, %23
  store float %24, ptr %6, align 4, !tbaa !12
  %25 = getelementptr inbounds nuw %struct.b2Vec2, ptr %2, i32 0, i32 0
  %26 = load float, ptr %6, align 4, !tbaa !12
  %27 = getelementptr inbounds nuw %struct.b2Vec2, ptr %3, i32 0, i32 0
  %28 = load float, ptr %27, align 4, !tbaa !30
  %29 = fmul float %26, %28
  store float %29, ptr %25, align 4, !tbaa !30
  %30 = getelementptr inbounds nuw %struct.b2Vec2, ptr %2, i32 0, i32 1
  %31 = load float, ptr %6, align 4, !tbaa !12
  %32 = getelementptr inbounds nuw %struct.b2Vec2, ptr %3, i32 0, i32 1
  %33 = load float, ptr %32, align 4, !tbaa !31
  %34 = fmul float %31, %33
  store float %34, ptr %30, align 4, !tbaa !31
  store i32 1, ptr %5, align 4
  call void @llvm.lifetime.end.p0(i64 4, ptr %6) #9
  br label %35

35:                                               ; preds = %22, %21
  call void @llvm.lifetime.end.p0(i64 4, ptr %4) #9
  %36 = load <2 x float>, ptr %2, align 4
  ret <2 x float> %36
}

; Function Attrs: inlinehint nounwind uwtable
define internal <2 x float> @b2MulAdd(<2 x float> %0, float noundef %1, <2 x float> %2) #6 {
  %4 = alloca %struct.b2Vec2, align 4
  %5 = alloca %struct.b2Vec2, align 4
  %6 = alloca %struct.b2Vec2, align 4
  %7 = alloca float, align 4
  store <2 x float> %0, ptr %5, align 4
  store <2 x float> %2, ptr %6, align 4
  store float %1, ptr %7, align 4, !tbaa !12
  %8 = getelementptr inbounds nuw %struct.b2Vec2, ptr %4, i32 0, i32 0
  %9 = getelementptr inbounds nuw %struct.b2Vec2, ptr %5, i32 0, i32 0
  %10 = load float, ptr %9, align 4, !tbaa !30
  %11 = load float, ptr %7, align 4, !tbaa !12
  %12 = getelementptr inbounds nuw %struct.b2Vec2, ptr %6, i32 0, i32 0
  %13 = load float, ptr %12, align 4, !tbaa !30
  %14 = fmul float %11, %13
  %15 = fadd float %10, %14
  store float %15, ptr %8, align 4, !tbaa !30
  %16 = getelementptr inbounds nuw %struct.b2Vec2, ptr %4, i32 0, i32 1
  %17 = getelementptr inbounds nuw %struct.b2Vec2, ptr %5, i32 0, i32 1
  %18 = load float, ptr %17, align 4, !tbaa !31
  %19 = load float, ptr %7, align 4, !tbaa !12
  %20 = getelementptr inbounds nuw %struct.b2Vec2, ptr %6, i32 0, i32 1
  %21 = load float, ptr %20, align 4, !tbaa !31
  %22 = fmul float %19, %21
  %23 = fadd float %18, %22
  store float %23, ptr %16, align 4, !tbaa !31
  %24 = load <2 x float>, ptr %4, align 4
  ret <2 x float> %24
}

; Function Attrs: inlinehint nounwind uwtable
define internal float @b2Dot(<2 x float> %0, <2 x float> %1) #6 {
  %3 = alloca %struct.b2Vec2, align 4
  %4 = alloca %struct.b2Vec2, align 4
  store <2 x float> %0, ptr %3, align 4
  store <2 x float> %1, ptr %4, align 4
  %5 = getelementptr inbounds nuw %struct.b2Vec2, ptr %3, i32 0, i32 0
  %6 = load float, ptr %5, align 4, !tbaa !30
  %7 = getelementptr inbounds nuw %struct.b2Vec2, ptr %4, i32 0, i32 0
  %8 = load float, ptr %7, align 4, !tbaa !30
  %9 = fmul float %6, %8
  %10 = getelementptr inbounds nuw %struct.b2Vec2, ptr %3, i32 0, i32 1
  %11 = load float, ptr %10, align 4, !tbaa !31
  %12 = getelementptr inbounds nuw %struct.b2Vec2, ptr %4, i32 0, i32 1
  %13 = load float, ptr %12, align 4, !tbaa !31
  %14 = fmul float %11, %13
  %15 = fadd float %9, %14
  ret float %15
}

; Function Attrs: inlinehint nounwind uwtable
define internal <2 x float> @b2GetLengthAndNormalize(ptr noundef %0, <2 x float> %1) #6 {
  %3 = alloca %struct.b2Vec2, align 4
  %4 = alloca %struct.b2Vec2, align 4
  %5 = alloca ptr, align 8
  %6 = alloca float, align 4
  store <2 x float> %1, ptr %4, align 4
  store ptr %0, ptr %5, align 8, !tbaa !79
  %7 = load <2 x float>, ptr %4, align 4
  %8 = call float @b2Length(<2 x float> %7)
  %9 = load ptr, ptr %5, align 8, !tbaa !79
  store float %8, ptr %9, align 4, !tbaa !12
  %10 = load ptr, ptr %5, align 8, !tbaa !79
  %11 = load float, ptr %10, align 4, !tbaa !12
  %12 = fcmp olt float %11, 0x3E80000000000000
  br i1 %12, label %13, label %14

13:                                               ; preds = %2
  call void @llvm.memcpy.p0.p0.i64(ptr align 4 %3, ptr align 4 @b2Vec2_zero, i64 8, i1 false), !tbaa.struct !26
  br label %28

14:                                               ; preds = %2
  call void @llvm.lifetime.start.p0(i64 4, ptr %6) #9
  %15 = load ptr, ptr %5, align 8, !tbaa !79
  %16 = load float, ptr %15, align 4, !tbaa !12
  %17 = fdiv float 1.000000e+00, %16
  store float %17, ptr %6, align 4, !tbaa !12
  %18 = getelementptr inbounds nuw %struct.b2Vec2, ptr %3, i32 0, i32 0
  %19 = load float, ptr %6, align 4, !tbaa !12
  %20 = getelementptr inbounds nuw %struct.b2Vec2, ptr %4, i32 0, i32 0
  %21 = load float, ptr %20, align 4, !tbaa !30
  %22 = fmul float %19, %21
  store float %22, ptr %18, align 4, !tbaa !30
  %23 = getelementptr inbounds nuw %struct.b2Vec2, ptr %3, i32 0, i32 1
  %24 = load float, ptr %6, align 4, !tbaa !12
  %25 = getelementptr inbounds nuw %struct.b2Vec2, ptr %4, i32 0, i32 1
  %26 = load float, ptr %25, align 4, !tbaa !31
  %27 = fmul float %24, %26
  store float %27, ptr %23, align 4, !tbaa !31
  call void @llvm.lifetime.end.p0(i64 4, ptr %6) #9
  br label %28

28:                                               ; preds = %14, %13
  %29 = load <2 x float>, ptr %3, align 4
  ret <2 x float> %29
}

; Function Attrs: inlinehint nounwind uwtable
define internal <2 x float> @b2Sub(<2 x float> %0, <2 x float> %1) #6 {
  %3 = alloca %struct.b2Vec2, align 4
  %4 = alloca %struct.b2Vec2, align 4
  %5 = alloca %struct.b2Vec2, align 4
  store <2 x float> %0, ptr %4, align 4
  store <2 x float> %1, ptr %5, align 4
  %6 = getelementptr inbounds nuw %struct.b2Vec2, ptr %3, i32 0, i32 0
  %7 = getelementptr inbounds nuw %struct.b2Vec2, ptr %4, i32 0, i32 0
  %8 = load float, ptr %7, align 4, !tbaa !30
  %9 = getelementptr inbounds nuw %struct.b2Vec2, ptr %5, i32 0, i32 0
  %10 = load float, ptr %9, align 4, !tbaa !30
  %11 = fsub float %8, %10
  store float %11, ptr %6, align 4, !tbaa !30
  %12 = getelementptr inbounds nuw %struct.b2Vec2, ptr %3, i32 0, i32 1
  %13 = getelementptr inbounds nuw %struct.b2Vec2, ptr %4, i32 0, i32 1
  %14 = load float, ptr %13, align 4, !tbaa !31
  %15 = getelementptr inbounds nuw %struct.b2Vec2, ptr %5, i32 0, i32 1
  %16 = load float, ptr %15, align 4, !tbaa !31
  %17 = fsub float %14, %16
  store float %17, ptr %12, align 4, !tbaa !31
  %18 = load <2 x float>, ptr %3, align 4
  ret <2 x float> %18
}

; Function Attrs: nounwind uwtable
define void @b2RayCastCircle(ptr dead_on_unwind noalias writable sret(%struct.b2CastOutput) align 4 %0, ptr noundef %1, ptr noundef %2) #0 {
  %4 = alloca ptr, align 8
  %5 = alloca ptr, align 8
  %6 = alloca %struct.b2Vec2, align 4
  %7 = alloca %struct.b2Vec2, align 4
  %8 = alloca float, align 4
  %9 = alloca %struct.b2Vec2, align 4
  %10 = alloca i32, align 4
  %11 = alloca float, align 4
  %12 = alloca %struct.b2Vec2, align 4
  %13 = alloca float, align 4
  %14 = alloca float, align 4
  %15 = alloca float, align 4
  %16 = alloca float, align 4
  %17 = alloca float, align 4
  %18 = alloca %struct.b2Vec2, align 4
  %19 = alloca %struct.b2Vec2, align 4
  %20 = alloca %struct.b2Vec2, align 4
  store ptr %1, ptr %4, align 8, !tbaa !3
  store ptr %2, ptr %5, align 8, !tbaa !50
  call void @llvm.lifetime.start.p0(i64 8, ptr %6) #9
  %21 = load ptr, ptr %5, align 8, !tbaa !50
  %22 = getelementptr inbounds nuw %struct.b2Circle, ptr %21, i32 0, i32 0
  call void @llvm.memcpy.p0.p0.i64(ptr align 4 %6, ptr align 4 %22, i64 8, i1 false), !tbaa.struct !26
  call void @llvm.memset.p0.i64(ptr align 4 %0, i8 0, i64 28, i1 false)
  call void @llvm.lifetime.start.p0(i64 8, ptr %7) #9
  %23 = load ptr, ptr %4, align 8, !tbaa !3
  %24 = getelementptr inbounds nuw %struct.b2RayCastInput, ptr %23, i32 0, i32 0
  %25 = load <2 x float>, ptr %24, align 4
  %26 = load <2 x float>, ptr %6, align 4
  %27 = call <2 x float> @b2Sub(<2 x float> %25, <2 x float> %26)
  store <2 x float> %27, ptr %7, align 4
  call void @llvm.lifetime.start.p0(i64 4, ptr %8) #9
  call void @llvm.lifetime.start.p0(i64 8, ptr %9) #9
  %28 = load ptr, ptr %4, align 8, !tbaa !3
  %29 = getelementptr inbounds nuw %struct.b2RayCastInput, ptr %28, i32 0, i32 1
  %30 = load <2 x float>, ptr %29, align 4
  %31 = call <2 x float> @b2GetLengthAndNormalize(ptr noundef %8, <2 x float> %30)
  store <2 x float> %31, ptr %9, align 4
  %32 = load float, ptr %8, align 4, !tbaa !12
  %33 = fcmp oeq float %32, 0.000000e+00
  br i1 %33, label %34, label %35

34:                                               ; preds = %3
  store i32 1, ptr %10, align 4
  br label %99

35:                                               ; preds = %3
  call void @llvm.lifetime.start.p0(i64 4, ptr %11) #9
  %36 = load <2 x float>, ptr %7, align 4
  %37 = load <2 x float>, ptr %9, align 4
  %38 = call float @b2Dot(<2 x float> %36, <2 x float> %37)
  %39 = fneg float %38
  store float %39, ptr %11, align 4, !tbaa !12
  call void @llvm.lifetime.start.p0(i64 8, ptr %12) #9
  %40 = load float, ptr %11, align 4, !tbaa !12
  %41 = load <2 x float>, ptr %7, align 4
  %42 = load <2 x float>, ptr %9, align 4
  %43 = call <2 x float> @b2MulAdd(<2 x float> %41, float noundef %40, <2 x float> %42)
  store <2 x float> %43, ptr %12, align 4
  call void @llvm.lifetime.start.p0(i64 4, ptr %13) #9
  %44 = load <2 x float>, ptr %12, align 4
  %45 = load <2 x float>, ptr %12, align 4
  %46 = call float @b2Dot(<2 x float> %44, <2 x float> %45)
  store float %46, ptr %13, align 4, !tbaa !12
  call void @llvm.lifetime.start.p0(i64 4, ptr %14) #9
  %47 = load ptr, ptr %5, align 8, !tbaa !50
  %48 = getelementptr inbounds nuw %struct.b2Circle, ptr %47, i32 0, i32 1
  %49 = load float, ptr %48, align 4, !tbaa !52
  store float %49, ptr %14, align 4, !tbaa !12
  call void @llvm.lifetime.start.p0(i64 4, ptr %15) #9
  %50 = load float, ptr %14, align 4, !tbaa !12
  %51 = load float, ptr %14, align 4, !tbaa !12
  %52 = fmul float %50, %51
  store float %52, ptr %15, align 4, !tbaa !12
  %53 = load float, ptr %13, align 4, !tbaa !12
  %54 = load float, ptr %15, align 4, !tbaa !12
  %55 = fcmp ogt float %53, %54
  br i1 %55, label %56, label %57

56:                                               ; preds = %35
  store i32 1, ptr %10, align 4
  br label %98

57:                                               ; preds = %35
  call void @llvm.lifetime.start.p0(i64 4, ptr %16) #9
  %58 = load float, ptr %15, align 4, !tbaa !12
  %59 = load float, ptr %13, align 4, !tbaa !12
  %60 = fsub float %58, %59
  %61 = call float @sqrtf(float noundef %60) #9, !tbaa !25
  store float %61, ptr %16, align 4, !tbaa !12
  call void @llvm.lifetime.start.p0(i64 4, ptr %17) #9
  %62 = load float, ptr %11, align 4, !tbaa !12
  %63 = load float, ptr %16, align 4, !tbaa !12
  %64 = fsub float %62, %63
  store float %64, ptr %17, align 4, !tbaa !12
  %65 = load float, ptr %17, align 4, !tbaa !12
  %66 = fcmp olt float %65, 0.000000e+00
  br i1 %66, label %75, label %67

67:                                               ; preds = %57
  %68 = load ptr, ptr %4, align 8, !tbaa !3
  %69 = getelementptr inbounds nuw %struct.b2RayCastInput, ptr %68, i32 0, i32 2
  %70 = load float, ptr %69, align 4, !tbaa !8
  %71 = load float, ptr %8, align 4, !tbaa !12
  %72 = fmul float %70, %71
  %73 = load float, ptr %17, align 4, !tbaa !12
  %74 = fcmp olt float %72, %73
  br i1 %74, label %75, label %76

75:                                               ; preds = %67, %57
  store i32 1, ptr %10, align 4
  br label %97

76:                                               ; preds = %67
  call void @llvm.lifetime.start.p0(i64 8, ptr %18) #9
  %77 = load float, ptr %17, align 4, !tbaa !12
  %78 = load <2 x float>, ptr %7, align 4
  %79 = load <2 x float>, ptr %9, align 4
  %80 = call <2 x float> @b2MulAdd(<2 x float> %78, float noundef %77, <2 x float> %79)
  store <2 x float> %80, ptr %18, align 4
  %81 = load float, ptr %17, align 4, !tbaa !12
  %82 = load float, ptr %8, align 4, !tbaa !12
  %83 = fdiv float %81, %82
  %84 = getelementptr inbounds nuw %struct.b2CastOutput, ptr %0, i32 0, i32 2
  store float %83, ptr %84, align 4, !tbaa !76
  %85 = getelementptr inbounds nuw %struct.b2CastOutput, ptr %0, i32 0, i32 0
  call void @llvm.lifetime.start.p0(i64 8, ptr %19) #9
  %86 = load <2 x float>, ptr %18, align 4
  %87 = call <2 x float> @b2Normalize(<2 x float> %86)
  store <2 x float> %87, ptr %19, align 4
  call void @llvm.memcpy.p0.p0.i64(ptr align 4 %85, ptr align 4 %19, i64 8, i1 false), !tbaa.struct !26
  call void @llvm.lifetime.end.p0(i64 8, ptr %19) #9
  %88 = getelementptr inbounds nuw %struct.b2CastOutput, ptr %0, i32 0, i32 1
  call void @llvm.lifetime.start.p0(i64 8, ptr %20) #9
  %89 = load ptr, ptr %5, align 8, !tbaa !50
  %90 = getelementptr inbounds nuw %struct.b2Circle, ptr %89, i32 0, i32 1
  %91 = load float, ptr %90, align 4, !tbaa !52
  %92 = getelementptr inbounds nuw %struct.b2CastOutput, ptr %0, i32 0, i32 0
  %93 = load <2 x float>, ptr %6, align 4
  %94 = load <2 x float>, ptr %92, align 4
  %95 = call <2 x float> @b2MulAdd(<2 x float> %93, float noundef %91, <2 x float> %94)
  store <2 x float> %95, ptr %20, align 4
  call void @llvm.memcpy.p0.p0.i64(ptr align 4 %88, ptr align 4 %20, i64 8, i1 false), !tbaa.struct !26
  call void @llvm.lifetime.end.p0(i64 8, ptr %20) #9
  %96 = getelementptr inbounds nuw %struct.b2CastOutput, ptr %0, i32 0, i32 4
  store i8 1, ptr %96, align 4, !tbaa !78
  store i32 1, ptr %10, align 4
  call void @llvm.lifetime.end.p0(i64 8, ptr %18) #9
  br label %97

97:                                               ; preds = %76, %75
  call void @llvm.lifetime.end.p0(i64 4, ptr %17) #9
  call void @llvm.lifetime.end.p0(i64 4, ptr %16) #9
  br label %98

98:                                               ; preds = %97, %56
  call void @llvm.lifetime.end.p0(i64 4, ptr %15) #9
  call void @llvm.lifetime.end.p0(i64 4, ptr %14) #9
  call void @llvm.lifetime.end.p0(i64 4, ptr %13) #9
  call void @llvm.lifetime.end.p0(i64 8, ptr %12) #9
  call void @llvm.lifetime.end.p0(i64 4, ptr %11) #9
  br label %99

99:                                               ; preds = %98, %34
  call void @llvm.lifetime.end.p0(i64 8, ptr %9) #9
  call void @llvm.lifetime.end.p0(i64 4, ptr %8) #9
  call void @llvm.lifetime.end.p0(i64 8, ptr %7) #9
  call void @llvm.lifetime.end.p0(i64 8, ptr %6) #9
  ret void
}