; Function Attrs: mustprogress nofree nounwind willreturn memory(write, argmem: readwrite) uwtable
define void @b2RayCastCircle(ptr dead_on_unwind noalias writable writeonly sret(%struct.b2CastOutput) align 4 captures(none) initializes((0, 28)) %0, ptr noundef readonly captures(none) %1, ptr noundef readonly captures(none) %2) local_unnamed_addr #10 {
  %.sroa.023.0.copyload = load <2 x float>, ptr %2, align 4
  tail call void @llvm.memset.p0.i64(ptr noundef nonnull align 4 dereferenceable(28) %0, i8 0, i64 28, i1 false)
  %4 = load <2 x float>, ptr %1, align 4
  %.sroa.0.0.vec.extract.i = extractelement <2 x float> %.sroa.023.0.copyload, i64 0
  %5 = fsub <2 x float> %4, %.sroa.023.0.copyload
  %6 = extractelement <2 x float> %5, i64 0
  %.sroa.0.4.vec.extract.i = extractelement <2 x float> %.sroa.023.0.copyload, i64 1
  %7 = fsub <2 x float> %4, %.sroa.023.0.copyload
  %8 = extractelement <2 x float> %7, i64 1
  %9 = getelementptr inbounds nuw i8, ptr %1, i64 8
  %10 = load <2 x float>, ptr %9, align 4
  %11 = fmul <2 x float> %10, %10
  %12 = extractelement <2 x float> %11, i64 0
  %.sroa.0.4.vec.extract.i.i = extractelement <2 x float> %10, i64 1
  %13 = fmul float %.sroa.0.4.vec.extract.i.i, %.sroa.0.4.vec.extract.i.i
  %14 = fadd float %12, %13
  %sqrt.i.i = tail call float @llvm.sqrt.f32(float %14)
  %15 = fcmp olt float %sqrt.i.i, 0x3E80000000000000
  br i1 %15, label %b2GetLengthAndNormalize.exit, label %16

16:                                               ; preds = %3
  %.sroa.0.0.vec.extract.i.i = extractelement <2 x float> %10, i64 0
  %17 = fdiv float 1.000000e+00, %sqrt.i.i
  %18 = fmul float %.sroa.0.0.vec.extract.i.i, %17
  %.sroa.06.0.vec.insert.i = insertelement <2 x float> poison, float %18, i64 0
  %19 = fmul float %.sroa.0.4.vec.extract.i.i, %17
  %.sroa.06.4.vec.insert.i = insertelement <2 x float> %.sroa.06.0.vec.insert.i, float %19, i64 1
  br label %b2GetLengthAndNormalize.exit

b2GetLengthAndNormalize.exit:                     ; preds = %3, %16
  %.sroa.06.0.i = phi <2 x float> [ %.sroa.06.4.vec.insert.i, %16 ], [ zeroinitializer, %3 ]
  %20 = fcmp oeq float %14, 0.000000e+00
  br i1 %20, label %69, label %21

21:                                               ; preds = %b2GetLengthAndNormalize.exit
  %.sroa.0.0.vec.extract.i34 = extractelement <2 x float> %.sroa.06.0.i, i64 0
  %22 = fmul <2 x float> %5, %.sroa.06.0.i
  %23 = extractelement <2 x float> %22, i64 0
  %.sroa.0.4.vec.extract.i36 = extractelement <2 x float> %.sroa.06.0.i, i64 1
  %24 = fmul float %8, %.sroa.0.4.vec.extract.i36
  %25 = fadd float %23, %24
  %26 = fmul float %.sroa.0.0.vec.extract.i34, %25
  %27 = fsub float %6, %26
  %28 = fmul float %.sroa.0.4.vec.extract.i36, %25
  %29 = fsub float %8, %28
  %30 = fmul float %27, %27
  %31 = fmul float %29, %29
  %32 = fadd float %30, %31
  %33 = getelementptr inbounds nuw i8, ptr %2, i64 8
  %34 = load float, ptr %33, align 4, !tbaa !42
  %35 = fmul float %34, %34
  %36 = fcmp ogt float %32, %35
  br i1 %36, label %69, label %37

37:                                               ; preds = %21
  %38 = fneg float %25
  %39 = fsub float %35, %32
  %40 = tail call float @sqrtf(float noundef %39) #17, !tbaa !40
  %41 = fsub float %38, %40
  %42 = fcmp olt float %41, 0.000000e+00
  br i1 %42, label %69, label %43

43:                                               ; preds = %37
  %44 = getelementptr inbounds nuw i8, ptr %1, i64 16
  %45 = load float, ptr %44, align 4, !tbaa !3
  %46 = fmul float %sqrt.i.i, %45
  %47 = fcmp olt float %46, %41
  br i1 %47, label %69, label %48

48:                                               ; preds = %43
  %49 = fmul float %.sroa.0.0.vec.extract.i34, %41
  %50 = fadd float %6, %49
  %51 = fmul float %.sroa.0.4.vec.extract.i36, %41
  %52 = fadd float %8, %51
  %53 = fdiv float %41, %sqrt.i.i
  %54 = getelementptr inbounds nuw i8, ptr %0, i64 16
  store float %53, ptr %54, align 4, !tbaa !58
  %55 = fmul float %50, %50
  %56 = fmul float %52, %52
  %57 = fadd float %55, %56
  %sqrt.i = tail call float @llvm.sqrt.f32(float %57)
  %58 = fcmp olt float %sqrt.i, 0x3E80000000000000
  br i1 %58, label %b2Normalize.exit, label %59

59:                                               ; preds = %48
  %60 = fdiv float 1.000000e+00, %sqrt.i
  %61 = fmul float %50, %60
  %.sroa.012.0.vec.insert.i = insertelement <2 x float> poison, float %61, i64 0
  %62 = fmul float %52, %60
  %.sroa.012.4.vec.insert.i = insertelement <2 x float> %.sroa.012.0.vec.insert.i, float %62, i64 1
  br label %b2Normalize.exit

b2Normalize.exit:                                 ; preds = %48, %59
  %.sroa.012.0.i = phi <2 x float> [ %.sroa.012.4.vec.insert.i, %59 ], [ zeroinitializer, %48 ]
  store <2 x float> %.sroa.012.0.i, ptr %0, align 4
  %63 = getelementptr inbounds nuw i8, ptr %0, i64 8
  %.sroa.0.0.vec.extract.i49 = extractelement <2 x float> %.sroa.012.0.i, i64 0
  %64 = fmul float %34, %.sroa.0.0.vec.extract.i49
  %65 = fadd float %.sroa.0.0.vec.extract.i, %64
  %.sroa.03.0.vec.insert.i50 = insertelement <2 x float> poison, float %65, i64 0
  %.sroa.0.4.vec.extract.i51 = extractelement <2 x float> %.sroa.012.0.i, i64 1
  %66 = fmul float %34, %.sroa.0.4.vec.extract.i51
  %67 = fadd float %.sroa.0.4.vec.extract.i, %66
  %.sroa.03.4.vec.insert.i52 = insertelement <2 x float> %.sroa.03.0.vec.insert.i50, float %67, i64 1
  store <2 x float> %.sroa.03.4.vec.insert.i52, ptr %63, align 4
  %68 = getelementptr inbounds nuw i8, ptr %0, i64 24
  store i8 1, ptr %68, align 4, !tbaa !61
  br label %69

69:                                               ; preds = %21, %37, %43, %b2Normalize.exit, %b2GetLengthAndNormalize.exit
  ret void
}